target datalayout = "e-m:e-p270:32:32-p271:32:32-p272:64:64-i64:64-i128:128-f80:128-n8:16:32:64-S128"
target triple = "x86_64-pc-linux-gnu"

%class.OopMap = type { i32, i32, i32, i32, i8, ptr }
%class.CompressedStream = type <{ ptr, i32, [4 x i8] }>

; Function Attrs: mustprogress nounwind uwtable
define linkonce_odr hidden noundef ptr @_ZNK16CompressedStream6bufferEv(ptr noundef nonnull align 8 dereferenceable(12) %0) #1 comdat align 2 {
  %2 = alloca ptr, align 8
  store ptr %0, ptr %2, align 8
  %3 = load ptr, ptr %2, align 8
  %4 = getelementptr inbounds %class.CompressedStream, ptr %3, i32 0, i32 0
  %5 = load ptr, ptr %4, align 8
  ret ptr %5
}

; Function Attrs: mustprogress nounwind uwtable
define linkonce_odr hidden noundef i32 @_ZNK16CompressedStream8positionEv(ptr noundef nonnull align 8 dereferenceable(12) %0) #1 comdat align 2 {
  %2 = alloca ptr, align 8
  store ptr %0, ptr %2, align 8
  %3 = load ptr, ptr %2, align 8
  %4 = getelementptr inbounds %class.CompressedStream, ptr %3, i32 0, i32 1
  %5 = load i32, ptr %4, align 8
  ret i32 %5
}

; Function Attrs: mustprogress nounwind uwtable
define linkonce_odr hidden noundef ptr @_ZNK6OopMap12write_streamEv(ptr noundef nonnull align 8 dereferenceable(32) %0) #1 comdat align 2 {
  %2 = alloca ptr, align 8
  store ptr %0, ptr %2, align 8
  %3 = load ptr, ptr %2, align 8
  %4 = getelementptr inbounds %class.OopMap, ptr %3, i32 0, i32 5
  %5 = load ptr, ptr %4, align 8
  ret ptr %5
}

; Function Attrs: mustprogress nounwind uwtable
define hidden noundef zeroext i1 @_ZNK6OopMap6equalsEPKS_(ptr noundef nonnull align 8 dereferenceable(32) %0, ptr noundef %1) #1 align 2 {
  %3 = alloca i1, align 1
  %4 = alloca ptr, align 8
  %5 = alloca ptr, align 8
  store ptr %0, ptr %4, align 8
  store ptr %1, ptr %5, align 8
  %6 = load ptr, ptr %4, align 8
  %7 = load ptr, ptr %5, align 8
  %8 = getelementptr inbounds %class.OopMap, ptr %7, i32 0, i32 1
  %9 = load i32, ptr %8, align 4
  %10 = getelementptr inbounds %class.OopMap, ptr %6, i32 0, i32 1
  %11 = load i32, ptr %10, align 4
  %12 = icmp ne i32 %9, %11
  br i1 %12, label %13, label %14

13:                                               ; preds = %2
  store i1 false, ptr %3, align 1
  br label %35

14:                                               ; preds = %2
  %15 = load ptr, ptr %5, align 8
  %16 = call noundef ptr @_ZNK6OopMap12write_streamEv(ptr noundef nonnull align 8 dereferenceable(32) %15)
  %17 = call noundef i32 @_ZNK16CompressedStream8positionEv(ptr noundef nonnull align 8 dereferenceable(12) %16)
  %18 = call noundef ptr @_ZNK6OopMap12write_streamEv(ptr noundef nonnull align 8 dereferenceable(32) %6)
  %19 = call noundef i32 @_ZNK16CompressedStream8positionEv(ptr noundef nonnull align 8 dereferenceable(12) %18)
  %20 = icmp ne i32 %17, %19
  br i1 %20, label %21, label %22

21:                                               ; preds = %14
  store i1 false, ptr %3, align 1
  br label %35

22:                                               ; preds = %14
  %23 = load ptr, ptr %5, align 8
  %24 = call noundef ptr @_ZNK6OopMap12write_streamEv(ptr noundef nonnull align 8 dereferenceable(32) %23)
  %25 = call noundef ptr @_ZNK16CompressedStream6bufferEv(ptr noundef nonnull align 8 dereferenceable(12) %24)
  %26 = call noundef ptr @_ZNK6OopMap12write_streamEv(ptr noundef nonnull align 8 dereferenceable(32) %6)
  %27 = call noundef ptr @_ZNK16CompressedStream6bufferEv(ptr noundef nonnull align 8 dereferenceable(12) %26)
  %28 = call noundef ptr @_ZNK6OopMap12write_streamEv(ptr noundef nonnull align 8 dereferenceable(32) %6)
  %29 = call noundef i32 @_ZNK16CompressedStream8positionEv(ptr noundef nonnull align 8 dereferenceable(12) %28)
  %30 = sext i32 %29 to i64
  %31 = call i32 @memcmp(ptr noundef %25, ptr noundef %27, i64 noundef %30) #9
  %32 = icmp ne i32 %31, 0
  br i1 %32, label %33, label %34

33:                                               ; preds = %22
  store i1 false, ptr %3, align 1
  br label %35

34:                                               ; preds = %22
  store i1 true, ptr %3, align 1
  br label %35

35:                                               ; preds = %34, %33, %21, %13
  %36 = load i1, ptr %3, align 1
  ret i1 %36
}