; Function Attrs: mustprogress nofree nounwind willreturn memory(read, inaccessiblemem: none) uwtable
define hidden noundef zeroext i1 @_ZNK6OopMap6equalsEPKS_(ptr nocapture noundef nonnull readonly align 8 dereferenceable(32) %0, ptr nocapture noundef readonly %1) local_unnamed_addr #9 align 2 {
  %3 = getelementptr inbounds i8, ptr %1, i64 4
  %4 = load i32, ptr %3, align 4
  %5 = getelementptr inbounds i8, ptr %0, i64 4
  %6 = load i32, ptr %5, align 4
  %.not = icmp eq i32 %4, %6
  br i1 %.not, label %7, label %20

7:                                                ; preds = %2
  %8 = getelementptr inbounds i8, ptr %1, i64 24
  %9 = load ptr, ptr %8, align 8
  %10 = getelementptr inbounds i8, ptr %9, i64 8
  %11 = load i32, ptr %10, align 8
  %12 = getelementptr inbounds i8, ptr %0, i64 24
  %13 = load ptr, ptr %12, align 8
  %14 = getelementptr inbounds i8, ptr %13, i64 8
  %15 = load i32, ptr %14, align 8
  %.not5 = icmp eq i32 %11, %15
  br i1 %.not5, label %16, label %20

16:                                               ; preds = %7
  %17 = load ptr, ptr %9, align 8
  %18 = load ptr, ptr %13, align 8
  %19 = sext i32 %11 to i64
  %bcmp = tail call i32 @bcmp(ptr %17, ptr %18, i64 %19)
  %.not6 = icmp eq i32 %bcmp, 0
  br label %20

20:                                               ; preds = %16, %7, %2
  %.0 = phi i1 [ false, %2 ], [ false, %7 ], [ %.not6, %16 ]
  ret i1 %.0
}